target datalayout = "e-m:e-p270:32:32-p271:32:32-p272:64:64-i64:64-i128:128-f80:128-n8:16:32:64-S128"
target triple = "x86_64-unknown-linux-gnu"

%"class.std::shared_ptr" = type { %"class.std::__shared_ptr" }
%"class.std::__shared_ptr" = type { ptr, %"class.std::__shared_count" }
%"class.std::__shared_count" = type { ptr }
%"class.grpc_core::promise_detail::Loop" = type { %"class.grpc_core::promise_detail::RepeatedPromiseFactory", %union.anon.72, i8, [7 x i8] }
%"class.grpc_core::promise_detail::RepeatedPromiseFactory" = type { %"class.grpc_core::promise_detail::Seq" }
%"class.grpc_core::promise_detail::Seq" = type { %"struct.grpc_core::promise_detail::SeqState" }
%"struct.grpc_core::promise_detail::SeqState" = type <{ %union.anon.59, i8, [7 x i8] }>
%union.anon.59 = type { %"struct.grpc_core::promise_detail::SeqState<grpc_core::promise_detail::SeqTraits, (lambda at /home/dtcxzyw/WorkSpace/Projects/compilers/llvm-opt-benchmark/bench/grpc/grpc/src/core/lib/resource_quota/memory_quota.cc:430:7), (lambda at /home/dtcxzyw/WorkSpace/Projects/compilers/llvm-opt-benchmark/bench/grpc/grpc/src/core/lib/resource_quota/memory_quota.cc:437:7), (lambda at /home/dtcxzyw/WorkSpace/Projects/compilers/llvm-opt-benchmark/bench/grpc/grpc/src/core/lib/resource_quota/memory_quota.cc:450:7), (lambda at /home/dtcxzyw/WorkSpace/Projects/compilers/llvm-opt-benchmark/bench/grpc/grpc/src/core/lib/resource_quota/memory_quota.cc:474:7)>::Running2" }
%"struct.grpc_core::promise_detail::SeqState<grpc_core::promise_detail::SeqTraits, (lambda at /home/dtcxzyw/WorkSpace/Projects/compilers/llvm-opt-benchmark/bench/grpc/grpc/src/core/lib/resource_quota/memory_quota.cc:430:7), (lambda at /home/dtcxzyw/WorkSpace/Projects/compilers/llvm-opt-benchmark/bench/grpc/grpc/src/core/lib/resource_quota/memory_quota.cc:437:7), (lambda at /home/dtcxzyw/WorkSpace/Projects/compilers/llvm-opt-benchmark/bench/grpc/grpc/src/core/lib/resource_quota/memory_quota.cc:450:7), (lambda at /home/dtcxzyw/WorkSpace/Projects/compilers/llvm-opt-benchmark/bench/grpc/grpc/src/core/lib/resource_quota/memory_quota.cc:474:7)>::Running2" = type { %union.anon.60 }
%union.anon.60 = type { %"struct.grpc_core::promise_detail::SeqState<grpc_core::promise_detail::SeqTraits, (lambda at /home/dtcxzyw/WorkSpace/Projects/compilers/llvm-opt-benchmark/bench/grpc/grpc/src/core/lib/resource_quota/memory_quota.cc:430:7), (lambda at /home/dtcxzyw/WorkSpace/Projects/compilers/llvm-opt-benchmark/bench/grpc/grpc/src/core/lib/resource_quota/memory_quota.cc:437:7), (lambda at /home/dtcxzyw/WorkSpace/Projects/compilers/llvm-opt-benchmark/bench/grpc/grpc/src/core/lib/resource_quota/memory_quota.cc:450:7), (lambda at /home/dtcxzyw/WorkSpace/Projects/compilers/llvm-opt-benchmark/bench/grpc/grpc/src/core/lib/resource_quota/memory_quota.cc:474:7)>::Running1" }
%"struct.grpc_core::promise_detail::SeqState<grpc_core::promise_detail::SeqTraits, (lambda at /home/dtcxzyw/WorkSpace/Projects/compilers/llvm-opt-benchmark/bench/grpc/grpc/src/core/lib/resource_quota/memory_quota.cc:430:7), (lambda at /home/dtcxzyw/WorkSpace/Projects/compilers/llvm-opt-benchmark/bench/grpc/grpc/src/core/lib/resource_quota/memory_quota.cc:437:7), (lambda at /home/dtcxzyw/WorkSpace/Projects/compilers/llvm-opt-benchmark/bench/grpc/grpc/src/core/lib/resource_quota/memory_quota.cc:450:7), (lambda at /home/dtcxzyw/WorkSpace/Projects/compilers/llvm-opt-benchmark/bench/grpc/grpc/src/core/lib/resource_quota/memory_quota.cc:474:7)>::Running1" = type { %union.anon.61, %"class.grpc_core::promise_detail::OncePromiseFactory.68" }
%union.anon.61 = type { %"class.grpc_core::promise_detail::PromiseLike.63" }
%"class.grpc_core::promise_detail::PromiseLike.63" = type { %"class.grpc_core::promise_detail::Race" }
%"class.grpc_core::promise_detail::Race" = type { %"class.grpc_core::promise_detail::Map", %"class.grpc_core::promise_detail::Race.66" }
%"class.grpc_core::promise_detail::Map" = type { %"class.grpc_core::promise_detail::PromiseLike.64", %class.anon.65 }
%"class.grpc_core::promise_detail::PromiseLike.64" = type { %"class.grpc_core::ReclaimerQueue::NextPromise" }
%"class.grpc_core::ReclaimerQueue::NextPromise" = type { ptr }
%class.anon.65 = type { ptr }
%"class.grpc_core::promise_detail::Race.66" = type { %"class.grpc_core::promise_detail::Map", %"class.grpc_core::promise_detail::Race.67" }
%"class.grpc_core::promise_detail::Race.67" = type { %"class.grpc_core::promise_detail::Map" }
%"class.grpc_core::promise_detail::OncePromiseFactory.68" = type { %class.anon.69 }
%class.anon.69 = type { %"class.std::shared_ptr" }
%union.anon.72 = type { %"class.grpc_core::promise_detail::PromiseLike.73" }
%"class.grpc_core::promise_detail::PromiseLike.73" = type { %"class.grpc_core::promise_detail::Seq" }

; Function Attrs: mustprogress nounwind uwtable
define internal void @"_ZN9grpc_core14promise_detail11PromiseLikeINS0_3SeqIZNS_16BasicMemoryQuota5StartEvE3$_1JZNS3_5StartEvE3$_0ZNS3_5StartEvE3$_2ZNS3_5StartEvE3$_3EEEvED2Ev"(ptr noundef nonnull align 8 dereferenceable(72) %this) unnamed_addr #4 align 2 {
entry:
  %this.addr = alloca ptr, align 8
  store ptr %this, ptr %this.addr, align 8
  %this1 = load ptr, ptr %this.addr, align 8
  %f_ = getelementptr inbounds %"class.grpc_core::promise_detail::PromiseLike.73", ptr %this1, i32 0, i32 0
  call void @"_ZN9grpc_core14promise_detail3SeqIZNS_16BasicMemoryQuota5StartEvE3$_1JZNS2_5StartEvE3$_0ZNS2_5StartEvE3$_2ZNS2_5StartEvE3$_3EED2Ev"(ptr noundef nonnull align 8 dereferenceable(72) %f_) #3
  ret void
}

; Function Attrs: noreturn nounwind uwtable
define linkonce_odr hidden void @__clang_call_terminate(ptr noundef %0) #6 comdat {
  %2 = call ptr @__cxa_begin_catch(ptr %0) #3
  call void @_ZSt9terminatev() #22
  unreachable
}

; Function Attrs: mustprogress nounwind uwtable
define internal void @"_ZN9grpc_core14promise_detail22RepeatedPromiseFactoryIvNS0_3SeqIZNS_16BasicMemoryQuota5StartEvE3$_1JZNS3_5StartEvE3$_0ZNS3_5StartEvE3$_2ZNS3_5StartEvE3$_3EEEED2Ev"(ptr noundef nonnull align 8 dereferenceable(72) %this) unnamed_addr #4 align 2 {
entry:
  %this.addr = alloca ptr, align 8
  store ptr %this, ptr %this.addr, align 8
  %this1 = load ptr, ptr %this.addr, align 8
  %f_ = getelementptr inbounds %"class.grpc_core::promise_detail::RepeatedPromiseFactory", ptr %this1, i32 0, i32 0
  call void @"_ZN9grpc_core14promise_detail3SeqIZNS_16BasicMemoryQuota5StartEvE3$_1JZNS2_5StartEvE3$_0ZNS2_5StartEvE3$_2ZNS2_5StartEvE3$_3EED2Ev"(ptr noundef nonnull align 8 dereferenceable(72) %f_) #3
  ret void
}

; Function Attrs: mustprogress nounwind uwtable
define internal void @"_ZN9grpc_core8DestructINS_14promise_detail11PromiseLikeINS1_3SeqIZNS_16BasicMemoryQuota5StartEvE3$_1JZNS4_5StartEvE3$_0ZNS4_5StartEvE3$_2ZNS4_5StartEvE3$_3EEEvEEEEvPT_"(ptr noundef %p) #4 {
entry:
  %p.addr = alloca ptr, align 8
  store ptr %p, ptr %p.addr, align 8
  %0 = load ptr, ptr %p.addr, align 8
  call void @"_ZN9grpc_core14promise_detail11PromiseLikeINS0_3SeqIZNS_16BasicMemoryQuota5StartEvE3$_1JZNS3_5StartEvE3$_0ZNS3_5StartEvE3$_2ZNS3_5StartEvE3$_3EEEvED2Ev"(ptr noundef nonnull align 8 dereferenceable(72) %0) #3
  ret void
}

; Function Attrs: mustprogress nounwind uwtable
define internal void @"_ZN9grpc_core14promise_detail4LoopINS0_3SeqIZNS_16BasicMemoryQuota5StartEvE3$_1JZNS3_5StartEvE3$_0ZNS3_5StartEvE3$_2ZNS3_5StartEvE3$_3EEEED2Ev"(ptr noundef nonnull align 8 dereferenceable(145) %this) unnamed_addr #4 align 2 personality ptr @__gxx_personality_v0 {
entry:
  %this.addr = alloca ptr, align 8
  store ptr %this, ptr %this.addr, align 8
  %this1 = load ptr, ptr %this.addr, align 8
  %started_ = getelementptr inbounds %"class.grpc_core::promise_detail::Loop", ptr %this1, i32 0, i32 2
  %0 = load i8, ptr %started_, align 8
  %tobool = trunc i8 %0 to i1
  br i1 %tobool, label %if.then, label %if.end

if.then:                                          ; preds = %entry
  %1 = getelementptr inbounds %"class.grpc_core::promise_detail::Loop", ptr %this1, i32 0, i32 1
  invoke void @"_ZN9grpc_core8DestructINS_14promise_detail11PromiseLikeINS1_3SeqIZNS_16BasicMemoryQuota5StartEvE3$_1JZNS4_5StartEvE3$_0ZNS4_5StartEvE3$_2ZNS4_5StartEvE3$_3EEEvEEEEvPT_"(ptr noundef %1)
          to label %invoke.cont unwind label %terminate.lpad

invoke.cont:                                      ; preds = %if.then
  br label %if.end

if.end:                                           ; preds = %invoke.cont, %entry
  %factory_ = getelementptr inbounds %"class.grpc_core::promise_detail::Loop", ptr %this1, i32 0, i32 0
  call void @"_ZN9grpc_core14promise_detail22RepeatedPromiseFactoryIvNS0_3SeqIZNS_16BasicMemoryQuota5StartEvE3$_1JZNS3_5StartEvE3$_0ZNS3_5StartEvE3$_2ZNS3_5StartEvE3$_3EEEED2Ev"(ptr noundef nonnull align 8 dereferenceable(72) %factory_) #3
  ret void

terminate.lpad:                                   ; preds = %if.then
  %2 = landingpad { ptr, i32 }
          catch ptr null
  %3 = extractvalue { ptr, i32 } %2, 0
  call void @__clang_call_terminate(ptr %3) #22
  unreachable
}