; Function Attrs: mustprogress nounwind uwtable
define internal fastcc void @"_ZN9grpc_core14promise_detail4LoopINS0_3SeqIZNS_16BasicMemoryQuota5StartEvE3$_1JZNS3_5StartEvE3$_0ZNS3_5StartEvE3$_2ZNS3_5StartEvE3$_3EEEED2Ev"(ptr nocapture noundef nonnull readonly align 8 dereferenceable(145) %this) unnamed_addr #3 align 2 personality ptr @__gxx_personality_v0 {
entry:
  %started_ = getelementptr inbounds i8, ptr %this, i64 144
  %0 = load i8, ptr %started_, align 8
  %1 = and i8 %0, 1
  %tobool.not = icmp eq i8 %1, 0
  br i1 %tobool.not, label %if.end, label %if.then

if.then:                                          ; preds = %entry
  %2 = getelementptr inbounds i8, ptr %this, i64 72
  tail call fastcc void @"_ZN9grpc_core14promise_detail3SeqIZNS_16BasicMemoryQuota5StartEvE3$_1JZNS2_5StartEvE3$_0ZNS2_5StartEvE3$_2ZNS2_5StartEvE3$_3EED2Ev"(ptr noundef nonnull align 8 dereferenceable(72) %2) #25
  br label %if.end

if.end:                                           ; preds = %if.then, %entry
  tail call fastcc void @"_ZN9grpc_core14promise_detail3SeqIZNS_16BasicMemoryQuota5StartEvE3$_1JZNS2_5StartEvE3$_0ZNS2_5StartEvE3$_2ZNS2_5StartEvE3$_3EED2Ev"(ptr noundef nonnull align 8 dereferenceable(72) %this) #25
  ret void
}